; Function Attrs: nounwind uwtable
define dso_local range(i64 0, 2) i64 @has_column_privilege_name_name_name(ptr noundef captures(none) %0) local_unnamed_addr #0 {
  %2 = alloca i8, align 1
  %3 = getelementptr inbounds nuw i8, ptr %0, i64 32
  %4 = load i64, ptr %3, align 8
  %5 = inttoptr i64 %4 to ptr
  %6 = getelementptr inbounds nuw i8, ptr %0, i64 48
  %7 = load i64, ptr %6, align 8
  %8 = inttoptr i64 %7 to ptr
  %9 = tail call ptr @pg_detoast_datum_packed(ptr noundef %8) #14
  %10 = getelementptr inbounds nuw i8, ptr %0, i64 64
  %11 = load i64, ptr %10, align 8
  %12 = inttoptr i64 %11 to ptr
  %13 = tail call ptr @pg_detoast_datum_packed(ptr noundef %12) #14
  %14 = getelementptr inbounds nuw i8, ptr %0, i64 80
  %15 = load i64, ptr %14, align 8
  %16 = inttoptr i64 %15 to ptr
  %17 = tail call ptr @pg_detoast_datum_packed(ptr noundef %16) #14
  %18 = tail call i32 @strcmp(ptr noundef nonnull dereferenceable(1) %5, ptr noundef nonnull dereferenceable(7) @.str.32) #17
  %19 = icmp eq i32 %18, 0
  br i1 %19, label %get_role_oid_or_public.exit, label %20

20:                                               ; preds = %1
  %21 = tail call i32 @GetSysCacheOid(i32 noundef 10, i16 noundef signext 1, i64 noundef %4, i64 noundef 0, i64 noundef 0, i64 noundef 0) #14
  %.not.i.not.i = icmp eq i32 %21, 0
  br i1 %.not.i.not.i, label %22, label %get_role_oid_or_public.exit

22:                                               ; preds = %20
  %23 = tail call zeroext i1 @errstart_cold(i32 noundef 21, ptr noundef null) #15
  tail call void @llvm.assume(i1 %23)
  %24 = tail call i32 @errcode(i32 noundef 67137668) #14
  %25 = tail call i32 (ptr, ...) @errmsg(ptr noundef nonnull @.str.31, ptr noundef nonnull %5) #14
  tail call void @errfinish(ptr noundef nonnull @.str.1, i32 noundef 5563, ptr noundef nonnull @__func__.get_role_oid) #14
  unreachable

get_role_oid_or_public.exit:                      ; preds = %1, %20
  %.0.i = phi i32 [ 0, %1 ], [ %21, %20 ]
  %26 = tail call ptr @textToQualifiedNameList(ptr noundef %9) #14
  %27 = tail call ptr @makeRangeVarFromNameList(ptr noundef %26) #14
  %28 = tail call i32 @RangeVarGetRelidExtended(ptr noundef %27, i32 noundef 0, i32 noundef 0, ptr noundef null, ptr noundef null) #14
  %29 = tail call fastcc signext i16 @convert_column_name(i32 noundef %28, ptr noundef %13)
  %30 = tail call fastcc i64 @convert_any_priv_string(ptr noundef %17, ptr noundef nonnull @convert_column_priv_string.column_priv_map)
  call void @llvm.lifetime.start.p0(i64 1, ptr nonnull %2) #14
  store i8 0, ptr %2, align 1
  %31 = icmp eq i16 %29, 0
  br i1 %31, label %column_privilege_check.exit.thread, label %32

32:                                               ; preds = %get_role_oid_or_public.exit
  %33 = call i32 @pg_attribute_aclcheck_ext(i32 noundef %28, i16 noundef signext %29, i32 noundef %.0.i, i64 noundef %30, ptr noundef nonnull %2) #14
  %34 = icmp eq i32 %33, 0
  br i1 %34, label %column_privilege_check.exit.thread20, label %35

35:                                               ; preds = %32
  %36 = load i8, ptr %2, align 1, !range !27, !noundef !28
  %37 = trunc nuw i8 %36 to i1
  br i1 %37, label %column_privilege_check.exit.thread, label %38

38:                                               ; preds = %35
  %39 = call i32 @pg_class_aclcheck_ext(i32 noundef %28, i32 noundef %.0.i, i64 noundef %30, ptr noundef nonnull %2) #14
  %40 = icmp eq i32 %39, 0
  br i1 %40, label %column_privilege_check.exit.thread20, label %column_privilege_check.exit

column_privilege_check.exit.thread:               ; preds = %get_role_oid_or_public.exit, %35
  call void @llvm.lifetime.end.p0(i64 1, ptr nonnull %2) #14
  br label %42

column_privilege_check.exit.thread20:             ; preds = %32, %38
  call void @llvm.lifetime.end.p0(i64 1, ptr nonnull %2) #14
  br label %44

column_privilege_check.exit:                      ; preds = %38
  %41 = load i8, ptr %2, align 1, !range !27, !noundef !28
  call void @llvm.lifetime.end.p0(i64 1, ptr nonnull %2) #14
  %.not = icmp eq i8 %41, 0
  br i1 %.not, label %44, label %42

42:                                               ; preds = %column_privilege_check.exit.thread, %column_privilege_check.exit
  %43 = getelementptr inbounds nuw i8, ptr %0, i64 28
  store i8 1, ptr %43, align 4
  br label %44

44:                                               ; preds = %column_privilege_check.exit, %column_privilege_check.exit.thread20, %42
  %.0 = phi i64 [ 0, %42 ], [ 1, %column_privilege_check.exit.thread20 ], [ 0, %column_privilege_check.exit ]
  ret i64 %.0
}